target datalayout = "e-m:e-p270:32:32-p271:32:32-p272:64:64-i64:64-i128:128-f80:128-n8:16:32:64-S128"
target triple = "x86_64-pc-linux-gnu"

; Function Attrs: mustprogress uwtable
define i32 @zmq_ctx_set_ext(ptr noundef %0, i32 noundef %1, ptr noundef %2, i64 noundef %3) #1 {
  %5 = alloca i32, align 4
  %6 = alloca ptr, align 8
  %7 = alloca i32, align 4
  %8 = alloca ptr, align 8
  %9 = alloca i64, align 8
  store ptr %0, ptr %6, align 8, !tbaa !12
  store i32 %1, ptr %7, align 4, !tbaa !8
  store ptr %2, ptr %8, align 8, !tbaa !12
  store i64 %3, ptr %9, align 8, !tbaa !13
  %10 = load ptr, ptr %6, align 8, !tbaa !12
  %11 = icmp ne ptr %10, null
  br i1 %11, label %12, label %15

12:                                               ; preds = %4
  %13 = load ptr, ptr %6, align 8, !tbaa !12
  %14 = call noundef zeroext i1 @_ZNK3zmq5ctx_t9check_tagEv(ptr noundef nonnull align 8 dereferenceable(648) %13)
  br i1 %14, label %17, label %15

15:                                               ; preds = %12, %4
  %16 = call ptr @__errno_location() #19
  store i32 14, ptr %16, align 4, !tbaa !8
  store i32 -1, ptr %5, align 4
  br label %23

17:                                               ; preds = %12
  %18 = load ptr, ptr %6, align 8, !tbaa !12
  %19 = load i32, ptr %7, align 4, !tbaa !8
  %20 = load ptr, ptr %8, align 8, !tbaa !12
  %21 = load i64, ptr %9, align 8, !tbaa !13
  %22 = call noundef i32 @_ZN3zmq5ctx_t3setEiPKvm(ptr noundef nonnull align 8 dereferenceable(648) %18, i32 noundef %19, ptr noundef %20, i64 noundef %21)
  store i32 %22, ptr %5, align 4
  br label %23

23:                                               ; preds = %17, %15
  %24 = load i32, ptr %5, align 4
  ret i32 %24
}

; Function Attrs: mustprogress uwtable
define i32 @zmq_ctx_set(ptr noundef %0, i32 noundef %1, i32 noundef %2) #1 {
  %4 = alloca ptr, align 8
  %5 = alloca i32, align 4
  %6 = alloca i32, align 4
  store ptr %0, ptr %4, align 8, !tbaa !12
  store i32 %1, ptr %5, align 4, !tbaa !8
  store i32 %2, ptr %6, align 4, !tbaa !8
  %7 = load ptr, ptr %4, align 8, !tbaa !12
  %8 = load i32, ptr %5, align 4, !tbaa !8
  %9 = call i32 @zmq_ctx_set_ext(ptr noundef %7, i32 noundef %8, ptr noundef %6, i64 noundef 4)
  ret i32 %9
}

; Function Attrs: mustprogress uwtable
define ptr @zmq_init(i32 noundef %0) #1 {
  %2 = alloca ptr, align 8
  %3 = alloca i32, align 4
  %4 = alloca ptr, align 8
  store i32 %0, ptr %3, align 4, !tbaa !8
  %5 = load i32, ptr %3, align 4, !tbaa !8
  %6 = icmp sge i32 %5, 0
  br i1 %6, label %7, label %13

7:                                                ; preds = %1
  call void @llvm.lifetime.start.p0(i64 8, ptr %4) #20
  %8 = call ptr @zmq_ctx_new()
  store ptr %8, ptr %4, align 8, !tbaa !12
  %9 = load ptr, ptr %4, align 8, !tbaa !12
  %10 = load i32, ptr %3, align 4, !tbaa !8
  %11 = call i32 @zmq_ctx_set(ptr noundef %9, i32 noundef 1, i32 noundef %10)
  %12 = load ptr, ptr %4, align 8, !tbaa !12
  store ptr %12, ptr %2, align 8
  call void @llvm.lifetime.end.p0(i64 8, ptr %4) #20
  br label %15

13:                                               ; preds = %1
  %14 = call ptr @__errno_location() #19
  store i32 22, ptr %14, align 4, !tbaa !8
  store ptr null, ptr %2, align 8
  br label %15

15:                                               ; preds = %13, %7
  %16 = load ptr, ptr %2, align 8
  ret ptr %16
}