; Function Attrs: mustprogress uwtable
define noundef ptr @zmq_init(i32 noundef %0) local_unnamed_addr #1 {
  %2 = alloca i32, align 4
  %3 = icmp sgt i32 %0, -1
  br i1 %3, label %4, label %12

4:                                                ; preds = %1
  %5 = tail call ptr @zmq_ctx_new()
  call void @llvm.lifetime.start.p0(i64 4, ptr nonnull %2)
  store i32 %0, ptr %2, align 4, !tbaa !3
  %.not.i.i = icmp eq ptr %5, null
  br i1 %.not.i.i, label %8, label %6

6:                                                ; preds = %4
  %7 = tail call noundef zeroext i1 @_ZNK3zmq5ctx_t9check_tagEv(ptr noundef nonnull align 8 dereferenceable(648) %5)
  br i1 %7, label %10, label %8

8:                                                ; preds = %6, %4
  %9 = tail call ptr @__errno_location() #20
  store i32 14, ptr %9, align 4, !tbaa !3
  br label %zmq_ctx_set.exit

10:                                               ; preds = %6
  %11 = call noundef i32 @_ZN3zmq5ctx_t3setEiPKvm(ptr noundef nonnull align 8 dereferenceable(648) %5, i32 noundef 1, ptr noundef nonnull %2, i64 noundef 4)
  br label %zmq_ctx_set.exit

zmq_ctx_set.exit:                                 ; preds = %8, %10
  call void @llvm.lifetime.end.p0(i64 4, ptr nonnull %2)
  br label %14

12:                                               ; preds = %1
  %13 = tail call ptr @__errno_location() #20
  store i32 22, ptr %13, align 4, !tbaa !3
  br label %14

14:                                               ; preds = %12, %zmq_ctx_set.exit
  %.0 = phi ptr [ %5, %zmq_ctx_set.exit ], [ null, %12 ]
  ret ptr %.0
}